; Function Attrs: nounwind uwtable
define hidden i32 @nghttp2_hd_emit_newname_block(ptr noundef %0, ptr noundef readonly captures(none) %1, i32 noundef %2) local_unnamed_addr #0 {
  %4 = icmp ult i32 %2, 3
  br i1 %4, label %switch.lookup, label %5

5:                                                ; preds = %3
  tail call void @__assert_fail(ptr noundef nonnull @.str.132, ptr noundef nonnull @.str.1, i32 noundef 1038, ptr noundef nonnull @__PRETTY_FUNCTION__.pack_first_byte) #13
  unreachable

switch.lookup:                                    ; preds = %3
  %switch.cast = trunc nuw i32 %2 to i24
  %switch.shiftamt = shl nuw nsw i24 %switch.cast, 3
  %switch.downshift = lshr i24 1048640, %switch.shiftamt
  %switch.masked = trunc i24 %switch.downshift to i8
  %6 = tail call i32 @nghttp2_bufs_addb(ptr noundef %0, i8 noundef zeroext %switch.masked) #12
  %.not.i = icmp eq i32 %6, 0
  br i1 %.not.i, label %7, label %emit_newname_block.exit

7:                                                ; preds = %switch.lookup
  %8 = load ptr, ptr %1, align 8, !tbaa !83
  %9 = getelementptr inbounds nuw i8, ptr %1, i64 16
  %10 = load i64, ptr %9, align 8, !tbaa !84
  %11 = tail call fastcc i32 @emit_string(ptr noundef %0, ptr noundef %8, i64 noundef %10)
  %.not17.i = icmp eq i32 %11, 0
  br i1 %.not17.i, label %12, label %emit_newname_block.exit

12:                                               ; preds = %7
  %13 = getelementptr inbounds nuw i8, ptr %1, i64 8
  %14 = load ptr, ptr %13, align 8, !tbaa !90
  %15 = getelementptr inbounds nuw i8, ptr %1, i64 24
  %16 = load i64, ptr %15, align 8, !tbaa !87
  %17 = tail call fastcc i32 @emit_string(ptr noundef %0, ptr noundef %14, i64 noundef %16)
  br label %emit_newname_block.exit

emit_newname_block.exit:                          ; preds = %switch.lookup, %7, %12
  %.0.i = phi i32 [ %6, %switch.lookup ], [ %11, %7 ], [ %17, %12 ]
  ret i32 %.0.i
}